; Function Attrs: mustprogress nofree norecurse nosync nounwind willreturn memory(argmem: write) uwtable
define internal noundef zeroext i1 @"_ZNSt17_Function_handlerIFvvEZ4mainE3$_0E10_M_managerERSt9_Any_dataRKS3_St18_Manager_operation"(ptr nocapture noundef nonnull writeonly align 8 dereferenceable(16) %__dest, ptr noundef nonnull align 8 dereferenceable(16) %__source, i32 noundef %__op) #24 align 2 personality ptr @__gxx_personality_v0 {
entry:
  switch i32 %__op, label %sw.epilog [
    i32 0, label %sw.epilog.sink.split
    i32 1, label %sw.bb1
  ]

sw.bb1:                                           ; preds = %entry
  br label %sw.epilog.sink.split

sw.epilog.sink.split:                             ; preds = %entry, %sw.bb1
  %__source.sink = phi ptr [ %__source, %sw.bb1 ], [ @"_ZTIZ4mainE3$_0", %entry ]
  store ptr %__source.sink, ptr %__dest, align 8
  br label %sw.epilog

sw.epilog:                                        ; preds = %sw.epilog.sink.split, %entry
  ret i1 false
}